target datalayout = "e-m:e-p270:32:32-p271:32:32-p272:64:64-i64:64-i128:128-f80:128-n8:16:32:64-S128"
target triple = "x86_64-unknown-linux-gnu"

%struct.QObjectBase_ = type { i32, i64 }
%struct.QObjectInputVisitor = type { %struct.Visitor, ptr, i8, %struct.anon, ptr }
%struct.Visitor = type { ptr, ptr, ptr, ptr, ptr, ptr, ptr, ptr, ptr, ptr, ptr, ptr, ptr, ptr, ptr, ptr, ptr, ptr, ptr, ptr, i32, %struct.CompatPolicy, ptr, ptr }
%struct.CompatPolicy = type { i8, i32, i8, i32, i8, i32, i8, i32 }
%struct.anon = type { ptr }
%struct.QObject = type { %struct.QObjectBase_ }
%struct.StackObject = type { ptr, ptr, ptr, ptr, ptr, i32, %struct.anon.1 }
%struct.anon.1 = type { ptr }

@.str.13 = private unnamed_addr constant [105 x i8] c"/home/dtcxzyw/WorkSpace/Projects/compilers/llvm-opt-benchmark/bench/qemu/qemu/include/qapi/qmp/qobject.h\00", align 1
@.str.40 = private unnamed_addr constant [25 x i8] c"!obj || obj->base.refcnt\00", align 1
@__PRETTY_FUNCTION__.qobject_unref_impl = private unnamed_addr constant [35 x i8] c"void qobject_unref_impl(QObject *)\00", align 1

; Function Attrs: nounwind sspstrong uwtable
define internal void @qobject_unref_impl(ptr noundef %obj) #0 {
entry:
  %obj.addr = alloca ptr, align 8
  store ptr %obj, ptr %obj.addr, align 8
  %0 = load ptr, ptr %obj.addr, align 8
  %tobool = icmp ne ptr %0, null
  br i1 %tobool, label %lor.lhs.false, label %if.then

lor.lhs.false:                                    ; preds = %entry
  %1 = load ptr, ptr %obj.addr, align 8
  %base = getelementptr inbounds %struct.QObject, ptr %1, i32 0, i32 0
  %refcnt = getelementptr inbounds %struct.QObjectBase_, ptr %base, i32 0, i32 1
  %2 = load i64, ptr %refcnt, align 8
  %tobool1 = icmp ne i64 %2, 0
  br i1 %tobool1, label %if.then, label %if.else

if.then:                                          ; preds = %lor.lhs.false, %entry
  br label %if.end

if.else:                                          ; preds = %lor.lhs.false
  call void @__assert_fail(ptr noundef @.str.40, ptr noundef @.str.13, i32 noundef 97, ptr noundef @__PRETTY_FUNCTION__.qobject_unref_impl) #7
  unreachable

if.end:                                           ; preds = %if.then
  %3 = load ptr, ptr %obj.addr, align 8
  %tobool2 = icmp ne ptr %3, null
  br i1 %tobool2, label %land.lhs.true, label %if.end6

land.lhs.true:                                    ; preds = %if.end
  %4 = load ptr, ptr %obj.addr, align 8
  %base3 = getelementptr inbounds %struct.QObject, ptr %4, i32 0, i32 0
  %refcnt4 = getelementptr inbounds %struct.QObjectBase_, ptr %base3, i32 0, i32 1
  %5 = load i64, ptr %refcnt4, align 8
  %dec = add i64 %5, -1
  store i64 %dec, ptr %refcnt4, align 8
  %cmp = icmp eq i64 %dec, 0
  br i1 %cmp, label %if.then5, label %if.end6

if.then5:                                         ; preds = %land.lhs.true
  %6 = load ptr, ptr %obj.addr, align 8
  call void @qobject_destroy(ptr noundef %6)
  br label %if.end6

if.end6:                                          ; preds = %if.then5, %land.lhs.true, %if.end
  ret void
}

; Function Attrs: nounwind sspstrong uwtable
define internal void @qobject_input_stack_object_free(ptr noundef %tos) #0 {
entry:
  %tos.addr = alloca ptr, align 8
  store ptr %tos, ptr %tos.addr, align 8
  %0 = load ptr, ptr %tos.addr, align 8
  %h = getelementptr inbounds %struct.StackObject, ptr %0, i32 0, i32 3
  %1 = load ptr, ptr %h, align 8
  %tobool = icmp ne ptr %1, null
  br i1 %tobool, label %if.then, label %if.end

if.then:                                          ; preds = %entry
  %2 = load ptr, ptr %tos.addr, align 8
  %h1 = getelementptr inbounds %struct.StackObject, ptr %2, i32 0, i32 3
  %3 = load ptr, ptr %h1, align 8
  call void @g_hash_table_unref(ptr noundef %3)
  br label %if.end

if.end:                                           ; preds = %if.then, %entry
  %4 = load ptr, ptr %tos.addr, align 8
  call void @g_free(ptr noundef %4)
  ret void
}

; Function Attrs: nounwind sspstrong uwtable
define internal ptr @to_qiv(ptr noundef %v) #0 {
entry:
  %v.addr = alloca ptr, align 8
  %__mptr = alloca ptr, align 8
  %tmp = alloca ptr, align 8
  store ptr %v, ptr %v.addr, align 8
  %0 = load ptr, ptr %v.addr, align 8
  store ptr %0, ptr %__mptr, align 8
  %1 = load ptr, ptr %__mptr, align 8
  %add.ptr = getelementptr i8, ptr %1, i64 0
  store ptr %add.ptr, ptr %tmp, align 8
  %2 = load ptr, ptr %tmp, align 8
  ret ptr %2
}

; Function Attrs: nounwind sspstrong uwtable
define internal void @qobject_input_free(ptr noundef %v) #0 {
entry:
  %v.addr = alloca ptr, align 8
  %qiv = alloca ptr, align 8
  %tos = alloca ptr, align 8
  %elm = alloca ptr, align 8
  %_obj2 = alloca ptr, align 8
  %tmp = alloca ptr, align 8
  %__mptr = alloca ptr, align 8
  %tmp9 = alloca ptr, align 8
  store ptr %v, ptr %v.addr, align 8
  %0 = load ptr, ptr %v.addr, align 8
  %call = call ptr @to_qiv(ptr noundef %0)
  store ptr %call, ptr %qiv, align 8
  br label %while.cond

while.cond:                                       ; preds = %do.end, %entry
  %1 = load ptr, ptr %qiv, align 8
  %stack = getelementptr inbounds %struct.QObjectInputVisitor, ptr %1, i32 0, i32 3
  %slh_first = getelementptr inbounds %struct.anon, ptr %stack, i32 0, i32 0
  %2 = load ptr, ptr %slh_first, align 8
  %cmp = icmp eq ptr %2, null
  %lnot = xor i1 %cmp, true
  br i1 %lnot, label %while.body, label %while.end

while.body:                                       ; preds = %while.cond
  %3 = load ptr, ptr %qiv, align 8
  %stack1 = getelementptr inbounds %struct.QObjectInputVisitor, ptr %3, i32 0, i32 3
  %slh_first2 = getelementptr inbounds %struct.anon, ptr %stack1, i32 0, i32 0
  %4 = load ptr, ptr %slh_first2, align 8
  store ptr %4, ptr %tos, align 8
  br label %do.body

do.body:                                          ; preds = %while.body
  %5 = load ptr, ptr %qiv, align 8
  %stack3 = getelementptr inbounds %struct.QObjectInputVisitor, ptr %5, i32 0, i32 3
  %slh_first4 = getelementptr inbounds %struct.anon, ptr %stack3, i32 0, i32 0
  %6 = load ptr, ptr %slh_first4, align 8
  store ptr %6, ptr %elm, align 8
  %7 = load ptr, ptr %elm, align 8
  %node = getelementptr inbounds %struct.StackObject, ptr %7, i32 0, i32 6
  %sle_next = getelementptr inbounds %struct.anon.1, ptr %node, i32 0, i32 0
  %8 = load ptr, ptr %sle_next, align 8
  %9 = load ptr, ptr %qiv, align 8
  %stack5 = getelementptr inbounds %struct.QObjectInputVisitor, ptr %9, i32 0, i32 3
  %slh_first6 = getelementptr inbounds %struct.anon, ptr %stack5, i32 0, i32 0
  store ptr %8, ptr %slh_first6, align 8
  %10 = load ptr, ptr %elm, align 8
  %node7 = getelementptr inbounds %struct.StackObject, ptr %10, i32 0, i32 6
  %sle_next8 = getelementptr inbounds %struct.anon.1, ptr %node7, i32 0, i32 0
  store ptr null, ptr %sle_next8, align 8
  br label %do.end

do.end:                                           ; preds = %do.body
  %11 = load ptr, ptr %tos, align 8
  call void @qobject_input_stack_object_free(ptr noundef %11)
  br label %while.cond, !llvm.loop !5

while.end:                                        ; preds = %while.cond
  %12 = load ptr, ptr %qiv, align 8
  %root = getelementptr inbounds %struct.QObjectInputVisitor, ptr %12, i32 0, i32 1
  %13 = load ptr, ptr %root, align 8
  store ptr %13, ptr %_obj2, align 8
  %14 = load ptr, ptr %_obj2, align 8
  %tobool = icmp ne ptr %14, null
  br i1 %tobool, label %cond.true, label %cond.false

cond.true:                                        ; preds = %while.end
  %15 = load ptr, ptr %_obj2, align 8
  %base = getelementptr inbounds %struct.QObject, ptr %15, i32 0, i32 0
  store ptr %base, ptr %__mptr, align 8
  %16 = load ptr, ptr %__mptr, align 8
  %add.ptr = getelementptr i8, ptr %16, i64 0
  store ptr %add.ptr, ptr %tmp9, align 8
  %17 = load ptr, ptr %tmp9, align 8
  br label %cond.end

cond.false:                                       ; preds = %while.end
  br label %cond.end

cond.end:                                         ; preds = %cond.false, %cond.true
  %cond = phi ptr [ %17, %cond.true ], [ null, %cond.false ]
  store ptr %cond, ptr %tmp, align 8
  %18 = load ptr, ptr %tmp, align 8
  call void @qobject_unref_impl(ptr noundef %18)
  %19 = load ptr, ptr %qiv, align 8
  %errname = getelementptr inbounds %struct.QObjectInputVisitor, ptr %19, i32 0, i32 4
  %20 = load ptr, ptr %errname, align 8
  %tobool10 = icmp ne ptr %20, null
  br i1 %tobool10, label %if.then, label %if.end

if.then:                                          ; preds = %cond.end
  %21 = load ptr, ptr %qiv, align 8
  %errname11 = getelementptr inbounds %struct.QObjectInputVisitor, ptr %21, i32 0, i32 4
  %22 = load ptr, ptr %errname11, align 8
  %call12 = call ptr @g_string_free(ptr noundef %22, i32 noundef 1)
  br label %if.end

if.end:                                           ; preds = %if.then, %cond.end
  %23 = load ptr, ptr %qiv, align 8
  call void @g_free(ptr noundef %23)
  ret void
}