; Function Attrs: nounwind sspstrong uwtable
define internal void @qobject_input_free(ptr noundef %v) #0 {
entry:
  %stack = getelementptr inbounds nuw i8, ptr %v, i64 232
  %0 = load ptr, ptr %stack, align 8
  %cmp.not12 = icmp eq ptr %0, null
  br i1 %cmp.not12, label %while.end, label %while.body

while.body:                                       ; preds = %entry, %qobject_input_stack_object_free.exit
  %1 = phi ptr [ %4, %qobject_input_stack_object_free.exit ], [ %0, %entry ]
  %node = getelementptr inbounds nuw i8, ptr %1, i64 48
  %2 = load ptr, ptr %node, align 8
  store ptr %2, ptr %stack, align 8
  store ptr null, ptr %node, align 8
  %h.i = getelementptr inbounds nuw i8, ptr %1, i64 24
  %3 = load ptr, ptr %h.i, align 8
  %tobool.not.i = icmp eq ptr %3, null
  br i1 %tobool.not.i, label %qobject_input_stack_object_free.exit, label %if.then.i

if.then.i:                                        ; preds = %while.body
  tail call void @g_hash_table_unref(ptr noundef nonnull %3) #8
  br label %qobject_input_stack_object_free.exit

qobject_input_stack_object_free.exit:             ; preds = %while.body, %if.then.i
  tail call void @g_free(ptr noundef nonnull %1) #8
  %4 = load ptr, ptr %stack, align 8
  %cmp.not = icmp eq ptr %4, null
  br i1 %cmp.not, label %while.end, label %while.body, !llvm.loop !5

while.end:                                        ; preds = %qobject_input_stack_object_free.exit, %entry
  %root = getelementptr inbounds nuw i8, ptr %v, i64 216
  %5 = load ptr, ptr %root, align 8
  %tobool.not = icmp eq ptr %5, null
  br i1 %tobool.not, label %qobject_unref_impl.exit, label %lor.lhs.false.i

lor.lhs.false.i:                                  ; preds = %while.end
  %refcnt.i = getelementptr inbounds nuw i8, ptr %5, i64 8
  %6 = load i64, ptr %refcnt.i, align 8
  %tobool1.not.i = icmp eq i64 %6, 0
  br i1 %tobool1.not.i, label %if.else.i, label %land.lhs.true.i

if.else.i:                                        ; preds = %lor.lhs.false.i
  tail call void @__assert_fail(ptr noundef nonnull @.str.40, ptr noundef nonnull @.str.13, i32 noundef 97, ptr noundef nonnull @__PRETTY_FUNCTION__.qobject_unref_impl) #7
  unreachable

land.lhs.true.i:                                  ; preds = %lor.lhs.false.i
  %dec.i = add i64 %6, -1
  store i64 %dec.i, ptr %refcnt.i, align 8
  %cmp.i = icmp eq i64 %dec.i, 0
  br i1 %cmp.i, label %if.then5.i, label %qobject_unref_impl.exit

if.then5.i:                                       ; preds = %land.lhs.true.i
  tail call void @qobject_destroy(ptr noundef nonnull %5) #8
  br label %qobject_unref_impl.exit

qobject_unref_impl.exit:                          ; preds = %while.end, %land.lhs.true.i, %if.then5.i
  %errname = getelementptr inbounds nuw i8, ptr %v, i64 240
  %7 = load ptr, ptr %errname, align 8
  %tobool10.not = icmp eq ptr %7, null
  br i1 %tobool10.not, label %if.end, label %if.then

if.then:                                          ; preds = %qobject_unref_impl.exit
  %call12 = tail call ptr @g_string_free(ptr noundef nonnull %7, i32 noundef 1) #8
  br label %if.end

if.end:                                           ; preds = %if.then, %qobject_unref_impl.exit
  tail call void @g_free(ptr noundef nonnull %v) #8
  ret void
}